ccopy_reg
_reconstructor
p0
(cPhysicsTools.HeppyCore.statistics.counter
Counter
p1
c__builtin__
list
p2
(lp3
(lp4
S'all events'
p5
aI1000
aa(lp6
S'>= 1 electron'
p7
aI421
aatp8
Rp9
(dp10
S'name'
p11
S'kanalyzer'
p12
sS'dico'
p13
(dp14
g7
I1
sg5
I0
ssb.